; Function Attrs: nounwind uwtable
define ptr @l_Std_Time_ZonedDateTime_toDaysSinceUNIXEpoch(ptr noundef readonly captures(none) %0) local_unnamed_addr #1 {
  %2 = getelementptr inbounds nuw i8, ptr %0, i64 8
  %3 = load ptr, ptr %2, align 8, !tbaa !4
  %4 = getelementptr inbounds nuw i8, ptr %3, i64 8
  %5 = load atomic ptr, ptr %4 seq_cst, align 8, !tbaa !15
  %.not.i.i = icmp eq ptr %5, null
  br i1 %.not.i.i, label %6, label %lean_thunk_get.exit.i

6:                                                ; preds = %1
  %7 = tail call ptr @lean_thunk_get_core(ptr noundef nonnull %3) #7
  br label %lean_thunk_get.exit.i

lean_thunk_get.exit.i:                            ; preds = %6, %1
  %.0.i.i = phi ptr [ %7, %6 ], [ %5, %1 ]
  %8 = ptrtoint ptr %.0.i.i to i64
  %9 = and i64 %8, 1
  %.not.i7 = icmp eq i64 %9, 0
  br i1 %.not.i7, label %10, label %lean_thunk_get_own.exit

10:                                               ; preds = %lean_thunk_get.exit.i
  %.val.i.i = load i32, ptr %.0.i.i, align 4, !tbaa !8
  %11 = icmp sgt i32 %.val.i.i, 0
  br i1 %11, label %12, label %14, !prof !11

12:                                               ; preds = %10
  %13 = add nuw i32 %.val.i.i, 1
  store i32 %13, ptr %.0.i.i, align 4, !tbaa !8
  br label %lean_thunk_get_own.exit

14:                                               ; preds = %10
  %.not.i3.i = icmp eq i32 %.val.i.i, 0
  br i1 %.not.i3.i, label %lean_thunk_get_own.exit, label %15

15:                                               ; preds = %14
  tail call void @lean_inc_ref_cold(ptr noundef nonnull %.0.i.i) #7
  br label %lean_thunk_get_own.exit

lean_thunk_get_own.exit:                          ; preds = %lean_thunk_get.exit.i, %12, %14, %15
  %16 = getelementptr inbounds nuw i8, ptr %.0.i.i, i64 8
  %17 = load ptr, ptr %16, align 8, !tbaa !4
  %18 = ptrtoint ptr %17 to i64
  %19 = and i64 %18, 1
  %.not = icmp eq i64 %19, 0
  br i1 %.not, label %20, label %lean_inc.exit

20:                                               ; preds = %lean_thunk_get_own.exit
  %.val.i = load i32, ptr %17, align 4, !tbaa !8
  %21 = icmp sgt i32 %.val.i, 0
  br i1 %21, label %22, label %24, !prof !11

22:                                               ; preds = %20
  %23 = add nuw i32 %.val.i, 1
  store i32 %23, ptr %17, align 4, !tbaa !8
  br label %lean_inc.exit

24:                                               ; preds = %20
  %.not.i8 = icmp eq i32 %.val.i, 0
  br i1 %.not.i8, label %lean_inc.exit, label %25

25:                                               ; preds = %24
  tail call void @lean_inc_ref_cold(ptr noundef nonnull %17) #7
  br label %lean_inc.exit

lean_inc.exit:                                    ; preds = %25, %24, %22, %lean_thunk_get_own.exit
  br i1 %.not.i7, label %26, label %lean_dec.exit

26:                                               ; preds = %lean_inc.exit
  %27 = load i32, ptr %.0.i.i, align 4, !tbaa !8
  %28 = icmp sgt i32 %27, 1
  br i1 %28, label %29, label %31, !prof !11

29:                                               ; preds = %26
  %30 = add nsw i32 %27, -1
  store i32 %30, ptr %.0.i.i, align 4, !tbaa !8
  br label %lean_dec.exit

31:                                               ; preds = %26
  %.not.i = icmp eq i32 %27, 0
  br i1 %.not.i, label %lean_dec.exit, label %32

32:                                               ; preds = %31
  tail call void @lean_dec_ref_cold(ptr noundef nonnull %.0.i.i) #7
  br label %lean_dec.exit

lean_dec.exit:                                    ; preds = %32, %31, %29, %lean_inc.exit
  %33 = tail call ptr @l_Std_Time_PlainDate_toDaysSinceUNIXEpoch(ptr noundef %17) #7
  ret ptr %33
}